target datalayout = "e-m:e-p270:32:32-p271:32:32-p272:64:64-i64:64-i128:128-f80:128-n8:16:32:64-S128"
target triple = "x86_64-unknown-linux-gnu"

%"class.std::__cxx11::basic_string" = type { %"struct.std::__cxx11::basic_string<char>::_Alloc_hider", i64, %union.anon }
%"struct.std::__cxx11::basic_string<char>::_Alloc_hider" = type { ptr }
%union.anon = type { i64, [8 x i8] }
%"class.cvc5::internal::DTypeConstructor" = type { %"class.std::__cxx11::basic_string", %"class.std::__cxx11::basic_string", %"class.cvc5::internal::NodeTemplate", %"class.cvc5::internal::NodeTemplate", %"class.std::vector", %"class.cvc5::internal::NodeTemplate", i32, %"class.std::map", %"class.std::map.6", %"class.std::map.11" }
%"class.std::vector" = type { %"struct.std::_Vector_base" }
%"struct.std::_Vector_base" = type { %"struct.std::_Vector_base<std::shared_ptr<cvc5::internal::DTypeSelector>, std::allocator<std::shared_ptr<cvc5::internal::DTypeSelector>>>::_Vector_impl" }
%"struct.std::_Vector_base<std::shared_ptr<cvc5::internal::DTypeSelector>, std::allocator<std::shared_ptr<cvc5::internal::DTypeSelector>>>::_Vector_impl" = type { %"struct.std::_Vector_base<std::shared_ptr<cvc5::internal::DTypeSelector>, std::allocator<std::shared_ptr<cvc5::internal::DTypeSelector>>>::_Vector_impl_data" }
%"struct.std::_Vector_base<std::shared_ptr<cvc5::internal::DTypeSelector>, std::allocator<std::shared_ptr<cvc5::internal::DTypeSelector>>>::_Vector_impl_data" = type { ptr, ptr, ptr }
%"class.cvc5::internal::NodeTemplate" = type { ptr }
%"class.std::map" = type { %"class.std::_Rb_tree" }
%"class.std::_Rb_tree" = type { %"struct.std::_Rb_tree<cvc5::internal::TypeNode, std::pair<const cvc5::internal::TypeNode, std::vector<cvc5::internal::NodeTemplate<true>>>, std::_Select1st<std::pair<const cvc5::internal::TypeNode, std::vector<cvc5::internal::NodeTemplate<true>>>>, std::less<cvc5::internal::TypeNode>>::_Rb_tree_impl" }
%"struct.std::_Rb_tree<cvc5::internal::TypeNode, std::pair<const cvc5::internal::TypeNode, std::vector<cvc5::internal::NodeTemplate<true>>>, std::_Select1st<std::pair<const cvc5::internal::TypeNode, std::vector<cvc5::internal::NodeTemplate<true>>>>, std::less<cvc5::internal::TypeNode>>::_Rb_tree_impl" = type { %"struct.std::_Rb_tree_key_compare", %"struct.std::_Rb_tree_header" }
%"struct.std::_Rb_tree_key_compare" = type { %"struct.std::less" }
%"struct.std::less" = type { i8 }
%"struct.std::_Rb_tree_header" = type { %"struct.std::_Rb_tree_node_base", i64 }
%"struct.std::_Rb_tree_node_base" = type { i32, ptr, ptr, ptr }
%"class.std::map.6" = type { %"class.std::_Rb_tree.7" }
%"class.std::_Rb_tree.7" = type { %"struct.std::_Rb_tree<cvc5::internal::TypeNode, std::pair<const cvc5::internal::TypeNode, std::map<cvc5::internal::NodeTemplate<true>, unsigned int>>, std::_Select1st<std::pair<const cvc5::internal::TypeNode, std::map<cvc5::internal::NodeTemplate<true>, unsigned int>>>, std::less<cvc5::internal::TypeNode>>::_Rb_tree_impl" }
%"struct.std::_Rb_tree<cvc5::internal::TypeNode, std::pair<const cvc5::internal::TypeNode, std::map<cvc5::internal::NodeTemplate<true>, unsigned int>>, std::_Select1st<std::pair<const cvc5::internal::TypeNode, std::map<cvc5::internal::NodeTemplate<true>, unsigned int>>>, std::less<cvc5::internal::TypeNode>>::_Rb_tree_impl" = type { %"struct.std::_Rb_tree_key_compare", %"struct.std::_Rb_tree_header" }
%"class.std::map.11" = type { %"class.std::_Rb_tree.12" }
%"class.std::_Rb_tree.12" = type { %"struct.std::_Rb_tree<cvc5::internal::TypeNode, std::pair<const cvc5::internal::TypeNode, std::pair<cvc5::internal::CardinalityClass, bool>>, std::_Select1st<std::pair<const cvc5::internal::TypeNode, std::pair<cvc5::internal::CardinalityClass, bool>>>, std::less<cvc5::internal::TypeNode>>::_Rb_tree_impl" }
%"struct.std::_Rb_tree<cvc5::internal::TypeNode, std::pair<const cvc5::internal::TypeNode, std::pair<cvc5::internal::CardinalityClass, bool>>, std::_Select1st<std::pair<const cvc5::internal::TypeNode, std::pair<cvc5::internal::CardinalityClass, bool>>>, std::less<cvc5::internal::TypeNode>>::_Rb_tree_impl" = type { %"struct.std::_Rb_tree_key_compare", %"struct.std::_Rb_tree_header" }
%"class.std::shared_ptr" = type { %"class.std::__shared_ptr" }
%"class.std::__shared_ptr" = type { ptr, %"class.std::__shared_count" }
%"class.std::__shared_count" = type { ptr }

@.str.28 = private unnamed_addr constant [2 x i8] c"(\00", align 1
@.str.29 = private unnamed_addr constant [3 x i8] c", \00", align 1
@.str.30 = private unnamed_addr constant [2 x i8] c")\00", align 1

; Function Attrs: mustprogress nounwind uwtable
define linkonce_odr hidden noundef ptr @_ZNKSt12__shared_ptrIN4cvc58internal13DTypeSelectorELN9__gnu_cxx12_Lock_policyE2EE3getEv(ptr noundef nonnull align 8 dereferenceable(16) %this) #6 comdat align 2 {
entry:
  %this.addr = alloca ptr, align 8
  store ptr %this, ptr %this.addr, align 8
  %this1 = load ptr, ptr %this.addr, align 8
  %_M_ptr = getelementptr inbounds %"class.std::__shared_ptr", ptr %this1, i32 0, i32 0
  %0 = load ptr, ptr %_M_ptr, align 8
  ret ptr %0
}

; Function Attrs: mustprogress nounwind uwtable
define linkonce_odr hidden noundef ptr @_ZNKSt19__shared_ptr_accessIN4cvc58internal13DTypeSelectorELN9__gnu_cxx12_Lock_policyE2ELb0ELb0EE6_M_getEv(ptr noundef nonnull align 1 dereferenceable(1) %this) #6 comdat align 2 {
entry:
  %this.addr = alloca ptr, align 8
  store ptr %this, ptr %this.addr, align 8
  %this1 = load ptr, ptr %this.addr, align 8
  %call = call noundef ptr @_ZNKSt12__shared_ptrIN4cvc58internal13DTypeSelectorELN9__gnu_cxx12_Lock_policyE2EE3getEv(ptr noundef nonnull align 8 dereferenceable(16) %this1) #3
  ret ptr %call
}

; Function Attrs: mustprogress nounwind uwtable
define linkonce_odr hidden noundef i64 @_ZNKSt6vectorISt10shared_ptrIN4cvc58internal13DTypeSelectorEESaIS4_EE4sizeEv(ptr noundef nonnull align 8 dereferenceable(24) %this) #6 comdat align 2 {
entry:
  %this.addr = alloca ptr, align 8
  store ptr %this, ptr %this.addr, align 8
  %this1 = load ptr, ptr %this.addr, align 8
  %_M_impl = getelementptr inbounds %"struct.std::_Vector_base", ptr %this1, i32 0, i32 0
  %_M_finish = getelementptr inbounds %"struct.std::_Vector_base<std::shared_ptr<cvc5::internal::DTypeSelector>, std::allocator<std::shared_ptr<cvc5::internal::DTypeSelector>>>::_Vector_impl_data", ptr %_M_impl, i32 0, i32 1
  %0 = load ptr, ptr %_M_finish, align 8
  %_M_impl2 = getelementptr inbounds %"struct.std::_Vector_base", ptr %this1, i32 0, i32 0
  %_M_start = getelementptr inbounds %"struct.std::_Vector_base<std::shared_ptr<cvc5::internal::DTypeSelector>, std::allocator<std::shared_ptr<cvc5::internal::DTypeSelector>>>::_Vector_impl_data", ptr %_M_impl2, i32 0, i32 0
  %1 = load ptr, ptr %_M_start, align 8
  %sub.ptr.lhs.cast = ptrtoint ptr %0 to i64
  %sub.ptr.rhs.cast = ptrtoint ptr %1 to i64
  %sub.ptr.sub = sub i64 %sub.ptr.lhs.cast, %sub.ptr.rhs.cast
  %sub.ptr.div = sdiv exact i64 %sub.ptr.sub, 16
  ret i64 %sub.ptr.div
}

; Function Attrs: mustprogress nounwind uwtable
define linkonce_odr hidden noundef nonnull align 8 dereferenceable(57) ptr @_ZNKSt19__shared_ptr_accessIN4cvc58internal13DTypeSelectorELN9__gnu_cxx12_Lock_policyE2ELb0ELb0EEdeEv(ptr noundef nonnull align 1 dereferenceable(1) %this) #6 comdat align 2 {
entry:
  %this.addr = alloca ptr, align 8
  store ptr %this, ptr %this.addr, align 8
  %this1 = load ptr, ptr %this.addr, align 8
  br label %do.body

do.body:                                          ; preds = %entry
  br label %do.cond

do.cond:                                          ; preds = %do.body
  br label %do.end

do.end:                                           ; preds = %do.cond
  %call = call noundef ptr @_ZNKSt19__shared_ptr_accessIN4cvc58internal13DTypeSelectorELN9__gnu_cxx12_Lock_policyE2ELb0ELb0EE6_M_getEv(ptr noundef nonnull align 1 dereferenceable(1) %this1) #3
  ret ptr %call
}

; Function Attrs: mustprogress nounwind uwtable
define linkonce_odr hidden noundef nonnull align 8 dereferenceable(16) ptr @_ZNKSt6vectorISt10shared_ptrIN4cvc58internal13DTypeSelectorEESaIS4_EEixEm(ptr noundef nonnull align 8 dereferenceable(24) %this, i64 noundef %__n) #6 comdat align 2 {
entry:
  %this.addr = alloca ptr, align 8
  %__n.addr = alloca i64, align 8
  store ptr %this, ptr %this.addr, align 8
  store i64 %__n, ptr %__n.addr, align 8
  %this1 = load ptr, ptr %this.addr, align 8
  %_M_impl = getelementptr inbounds %"struct.std::_Vector_base", ptr %this1, i32 0, i32 0
  %_M_start = getelementptr inbounds %"struct.std::_Vector_base<std::shared_ptr<cvc5::internal::DTypeSelector>, std::allocator<std::shared_ptr<cvc5::internal::DTypeSelector>>>::_Vector_impl_data", ptr %_M_impl, i32 0, i32 0
  %0 = load ptr, ptr %_M_start, align 8
  %1 = load i64, ptr %__n.addr, align 8
  %add.ptr = getelementptr inbounds %"class.std::shared_ptr", ptr %0, i64 %1
  ret ptr %add.ptr
}

; Function Attrs: mustprogress nounwind uwtable
define hidden noundef i64 @_ZNK4cvc58internal16DTypeConstructor10getNumArgsEv(ptr noundef nonnull align 8 dereferenceable(264) %this) #6 align 2 {
entry:
  %this.addr = alloca ptr, align 8
  store ptr %this, ptr %this.addr, align 8
  %this1 = load ptr, ptr %this.addr, align 8
  %d_args = getelementptr inbounds %"class.cvc5::internal::DTypeConstructor", ptr %this1, i32 0, i32 4
  %call = call noundef i64 @_ZNKSt6vectorISt10shared_ptrIN4cvc58internal13DTypeSelectorEESaIS4_EE4sizeEv(ptr noundef nonnull align 8 dereferenceable(24) %d_args) #3
  ret i64 %call
}

; Function Attrs: mustprogress nounwind uwtable
define hidden noundef nonnull align 8 dereferenceable(32) ptr @_ZNK4cvc58internal16DTypeConstructor7getNameB5cxx11Ev(ptr noundef nonnull align 8 dereferenceable(264) %this) #6 align 2 {
entry:
  %this.addr = alloca ptr, align 8
  store ptr %this, ptr %this.addr, align 8
  %this1 = load ptr, ptr %this.addr, align 8
  %d_name = getelementptr inbounds %"class.cvc5::internal::DTypeConstructor", ptr %this1, i32 0, i32 0
  ret ptr %d_name
}

; Function Attrs: mustprogress uwtable
define hidden void @_ZNK4cvc58internal16DTypeConstructor8toStreamERSo(ptr noundef nonnull align 8 dereferenceable(264) %this, ptr noundef nonnull align 8 dereferenceable(8) %out) #4 align 2 {
entry:
  %this.addr = alloca ptr, align 8
  %out.addr = alloca ptr, align 8
  %nargs = alloca i32, align 4
  %i = alloca i32, align 4
  store ptr %this, ptr %this.addr, align 8
  store ptr %out, ptr %out.addr, align 8
  %this1 = load ptr, ptr %this.addr, align 8
  %0 = load ptr, ptr %out.addr, align 8
  %call = call noundef nonnull align 8 dereferenceable(32) ptr @_ZNK4cvc58internal16DTypeConstructor7getNameB5cxx11Ev(ptr noundef nonnull align 8 dereferenceable(264) %this1)
  %call2 = call noundef nonnull align 8 dereferenceable(8) ptr @_ZStlsIcSt11char_traitsIcESaIcEERSt13basic_ostreamIT_T0_ES7_RKNSt7__cxx1112basic_stringIS4_S5_T1_EE(ptr noundef nonnull align 8 dereferenceable(8) %0, ptr noundef nonnull align 8 dereferenceable(32) %call)
  %call3 = call noundef i64 @_ZNK4cvc58internal16DTypeConstructor10getNumArgsEv(ptr noundef nonnull align 8 dereferenceable(264) %this1)
  %conv = trunc i64 %call3 to i32
  store i32 %conv, ptr %nargs, align 4
  %1 = load i32, ptr %nargs, align 4
  %cmp = icmp eq i32 %1, 0
  br i1 %cmp, label %if.then, label %if.end

if.then:                                          ; preds = %entry
  br label %return

if.end:                                           ; preds = %entry
  %2 = load ptr, ptr %out.addr, align 8
  %call4 = call noundef nonnull align 8 dereferenceable(8) ptr @_ZStlsISt11char_traitsIcEERSt13basic_ostreamIcT_ES5_PKc(ptr noundef nonnull align 8 dereferenceable(8) %2, ptr noundef @.str.28)
  store i32 0, ptr %i, align 4
  br label %for.cond

for.cond:                                         ; preds = %for.inc, %if.end
  %3 = load i32, ptr %i, align 4
  %4 = load i32, ptr %nargs, align 4
  %cmp5 = icmp ult i32 %3, %4
  br i1 %cmp5, label %for.body, label %for.end

for.body:                                         ; preds = %for.cond
  %5 = load ptr, ptr %out.addr, align 8
  %d_args = getelementptr inbounds %"class.cvc5::internal::DTypeConstructor", ptr %this1, i32 0, i32 4
  %6 = load i32, ptr %i, align 4
  %conv6 = zext i32 %6 to i64
  %call7 = call noundef nonnull align 8 dereferenceable(16) ptr @_ZNKSt6vectorISt10shared_ptrIN4cvc58internal13DTypeSelectorEESaIS4_EEixEm(ptr noundef nonnull align 8 dereferenceable(24) %d_args, i64 noundef %conv6) #3
  %call8 = call noundef nonnull align 8 dereferenceable(57) ptr @_ZNKSt19__shared_ptr_accessIN4cvc58internal13DTypeSelectorELN9__gnu_cxx12_Lock_policyE2ELb0ELb0EEdeEv(ptr noundef nonnull align 1 dereferenceable(1) %call7) #3
  %call9 = call noundef nonnull align 8 dereferenceable(8) ptr @_ZN4cvc58internallsERSoRKNS0_13DTypeSelectorE(ptr noundef nonnull align 8 dereferenceable(8) %5, ptr noundef nonnull align 8 dereferenceable(57) %call8)
  %7 = load i32, ptr %i, align 4
  %add = add i32 %7, 1
  %8 = load i32, ptr %nargs, align 4
  %cmp10 = icmp ult i32 %add, %8
  br i1 %cmp10, label %if.then11, label %if.end13

if.then11:                                        ; preds = %for.body
  %9 = load ptr, ptr %out.addr, align 8
  %call12 = call noundef nonnull align 8 dereferenceable(8) ptr @_ZStlsISt11char_traitsIcEERSt13basic_ostreamIcT_ES5_PKc(ptr noundef nonnull align 8 dereferenceable(8) %9, ptr noundef @.str.29)
  br label %if.end13

if.end13:                                         ; preds = %if.then11, %for.body
  br label %for.inc

for.inc:                                          ; preds = %if.end13
  %10 = load i32, ptr %i, align 4
  %inc = add i32 %10, 1
  store i32 %inc, ptr %i, align 4
  br label %for.cond, !llvm.loop !37

for.end:                                          ; preds = %for.cond
  %11 = load ptr, ptr %out.addr, align 8
  %call14 = call noundef nonnull align 8 dereferenceable(8) ptr @_ZStlsISt11char_traitsIcEERSt13basic_ostreamIcT_ES5_PKc(ptr noundef nonnull align 8 dereferenceable(8) %11, ptr noundef @.str.30)
  br label %return

return:                                           ; preds = %for.end, %if.then
  ret void
}