; Function Attrs: mustprogress uwtable
define hidden void @_ZNK4cvc58internal16DTypeConstructor8toStreamERSo(ptr noundef nonnull align 8 dereferenceable(264) %this, ptr noundef nonnull align 8 dereferenceable(8) %out) local_unnamed_addr #3 align 2 {
entry:
  %call2 = tail call noundef nonnull align 8 dereferenceable(8) ptr @_ZStlsIcSt11char_traitsIcESaIcEERSt13basic_ostreamIT_T0_ES7_RKNSt7__cxx1112basic_stringIS4_S5_T1_EE(ptr noundef nonnull align 8 dereferenceable(8) %out, ptr noundef nonnull align 8 dereferenceable(32) %this)
  %d_args.i = getelementptr inbounds i8, ptr %this, i64 80
  %_M_finish.i.i = getelementptr inbounds i8, ptr %this, i64 88
  %0 = load ptr, ptr %_M_finish.i.i, align 8
  %1 = load ptr, ptr %d_args.i, align 8
  %sub.ptr.lhs.cast.i.i = ptrtoint ptr %0 to i64
  %sub.ptr.rhs.cast.i.i = ptrtoint ptr %1 to i64
  %sub.ptr.sub.i.i = sub i64 %sub.ptr.lhs.cast.i.i, %sub.ptr.rhs.cast.i.i
  %2 = and i64 %sub.ptr.sub.i.i, 68719476720
  %cmp = icmp eq i64 %2, 0
  br i1 %cmp, label %return, label %if.end

if.end:                                           ; preds = %entry
  %sub.ptr.div.i.i = lshr exact i64 %sub.ptr.sub.i.i, 4
  %call4 = tail call noundef nonnull align 8 dereferenceable(8) ptr @_ZStlsISt11char_traitsIcEERSt13basic_ostreamIcT_ES5_PKc(ptr noundef nonnull align 8 dereferenceable(8) %out, ptr noundef nonnull @.str.28)
  %3 = and i64 %sub.ptr.div.i.i, 4294967295
  br label %for.body

for.body:                                         ; preds = %if.end, %for.inc
  %indvars.iv = phi i64 [ 0, %if.end ], [ %indvars.iv.next, %for.inc ]
  %4 = load ptr, ptr %d_args.i, align 8
  %add.ptr.i = getelementptr inbounds %"class.std::shared_ptr", ptr %4, i64 %indvars.iv
  %5 = load ptr, ptr %add.ptr.i, align 8
  %call9 = tail call noundef nonnull align 8 dereferenceable(8) ptr @_ZN4cvc58internallsERSoRKNS0_13DTypeSelectorE(ptr noundef nonnull align 8 dereferenceable(8) %out, ptr noundef nonnull align 8 dereferenceable(57) %5)
  %indvars.iv.next = add nuw nsw i64 %indvars.iv, 1
  %cmp10 = icmp ult i64 %indvars.iv.next, %3
  br i1 %cmp10, label %if.then11, label %for.inc

if.then11:                                        ; preds = %for.body
  %call12 = tail call noundef nonnull align 8 dereferenceable(8) ptr @_ZStlsISt11char_traitsIcEERSt13basic_ostreamIcT_ES5_PKc(ptr noundef nonnull align 8 dereferenceable(8) %out, ptr noundef nonnull @.str.29)
  br label %for.inc

for.inc:                                          ; preds = %for.body, %if.then11
  %exitcond.not = icmp eq i64 %indvars.iv.next, %3
  br i1 %exitcond.not, label %for.end, label %for.body, !llvm.loop !90

for.end:                                          ; preds = %for.inc
  %call14 = tail call noundef nonnull align 8 dereferenceable(8) ptr @_ZStlsISt11char_traitsIcEERSt13basic_ostreamIcT_ES5_PKc(ptr noundef nonnull align 8 dereferenceable(8) %out, ptr noundef nonnull @.str.30)
  br label %return

return:                                           ; preds = %entry, %for.end
  ret void
}